; Function Attrs: mustprogress uwtable
define internal void @"_ZNSt17_Function_handlerIFvmRK7svectorIjjEjEZN3sat14cut_simplifier11clauses2aigEvE3$_3E9_M_invokeERKSt9_Any_dataOmS3_Oj"(ptr nocapture noundef nonnull readonly align 8 dereferenceable(16) %__functor, ptr nocapture noundef nonnull readonly align 8 dereferenceable(8) %__args, ptr nocapture noundef nonnull readonly align 8 dereferenceable(8) %__args1, ptr nocapture noundef nonnull readonly align 4 dereferenceable(4) %__args3) #3 align 2 {
entry:
  %call.val = load ptr, ptr %__functor, align 8
  %__args.val = load i64, ptr %__args, align 8
  %__args3.val = load i32, ptr %__args3, align 4
  %m_xluts.i.i.i = getelementptr inbounds i8, ptr %call.val, i64 44
  %0 = load i32, ptr %m_xluts.i.i.i, align 4
  %inc.i.i.i = add i32 %0, 1
  store i32 %inc.i.i.i, ptr %m_xluts.i.i.i, align 4
  %1 = load ptr, ptr %__args1, align 8
  %cmp.i.i.i.i = icmp eq ptr %1, null
  br i1 %cmp.i.i.i.i, label %"_ZSt10__invoke_rIvRZN3sat14cut_simplifier11clauses2aigEvE3$_3JmRK7svectorIjjEjEENSt9enable_ifIX16is_invocable_r_vIT_T0_DpT1_EES9_E4typeEOSA_DpOSB_.exit", label %if.end.i.i.i.i

if.end.i.i.i.i:                                   ; preds = %entry
  %arrayidx.i.i.i.i = getelementptr inbounds i8, ptr %1, i64 -4
  %2 = load i32, ptr %arrayidx.i.i.i.i, align 4
  br label %"_ZSt10__invoke_rIvRZN3sat14cut_simplifier11clauses2aigEvE3$_3JmRK7svectorIjjEjEENSt9enable_ifIX16is_invocable_r_vIT_T0_DpT1_EES9_E4typeEOSA_DpOSB_.exit"

"_ZSt10__invoke_rIvRZN3sat14cut_simplifier11clauses2aigEvE3$_3JmRK7svectorIjjEjEENSt9enable_ifIX16is_invocable_r_vIT_T0_DpT1_EES9_E4typeEOSA_DpOSB_.exit": ; preds = %entry, %if.end.i.i.i.i
  %retval.0.i.i.i.i = phi i32 [ %2, %if.end.i.i.i.i ], [ 0, %entry ]
  %m_aig_cuts.i.i.i = getelementptr inbounds i8, ptr %call.val, i64 72
  tail call void @_ZN3sat8aig_cuts8add_nodeEjmjPKj(ptr noundef nonnull align 8 dereferenceable(480) %m_aig_cuts.i.i.i, i32 noundef %__args3.val, i64 noundef %__args.val, i32 noundef %retval.0.i.i.i.i, ptr noundef %1)
  ret void
}